; Function Attrs: mustprogress nounwind uwtable
define hidden void @_ZN22ThreadLocalAllocBuffer13insert_fillerEv(ptr nocapture noundef nonnull readonly align 8 dereferenceable(116) %0) local_unnamed_addr #3 align 2 {
  %2 = getelementptr inbounds i8, ptr %0, i64 8
  %3 = load ptr, ptr %2, align 8
  %4 = getelementptr inbounds i8, ptr %0, i64 32
  %5 = load ptr, ptr %4, align 8
  %6 = load i64, ptr @_ZN13CollectedHeap22_lab_alignment_reserveE, align 8
  %7 = load i32, ptr @_ZN22ThreadLocalAllocBuffer32_reserve_for_allocation_prefetchE, align 4
  %8 = sext i32 %7 to i64
  %9 = tail call noundef i64 @llvm.umax.i64(i64 %6, i64 %8)
  %10 = load i32, ptr @MinObjAlignment, align 4
  %11 = add nsw i32 %10, -1
  %12 = sext i32 %11 to i64
  %13 = add i64 %9, %12
  %14 = sub i32 0, %10
  %15 = sext i32 %14 to i64
  %16 = and i64 %13, %15
  %17 = getelementptr inbounds ptr, ptr %5, i64 %16
  %18 = icmp ult ptr %3, %17
  br i1 %18, label %19, label %24

19:                                               ; preds = %1
  %20 = load ptr, ptr @_ZN8Universe14_collectedHeapE, align 8
  %21 = load ptr, ptr %20, align 8
  %22 = getelementptr inbounds i8, ptr %21, i64 144
  %23 = load ptr, ptr %22, align 8
  tail call void %23(ptr noundef nonnull align 8 dereferenceable(104) %20, ptr noundef %3, ptr noundef nonnull %17, i1 noundef zeroext true) #16
  br label %24

24:                                               ; preds = %19, %1
  ret void
}